target datalayout = "e-m:e-p270:32:32-p271:32:32-p272:64:64-i64:64-i128:128-f80:128-n8:16:32:64-S128"
target triple = "x86_64-pc-linux-gnu"

%struct.COVER_epoch_info_t = type { i32, i32 }

; Function Attrs: nounwind uwtable
define dso_local i64 @COVER_computeEpochs(i32 noundef %0, i32 noundef %1, i32 noundef %2, i32 noundef %3) #0 {
  %5 = alloca %struct.COVER_epoch_info_t, align 4
  %6 = alloca i32, align 4
  %7 = alloca i32, align 4
  %8 = alloca i32, align 4
  %9 = alloca i32, align 4
  %10 = alloca i32, align 4
  %11 = alloca i32, align 4
  store i32 %0, ptr %6, align 4, !tbaa !9
  store i32 %1, ptr %7, align 4, !tbaa !9
  store i32 %2, ptr %8, align 4, !tbaa !9
  store i32 %3, ptr %9, align 4, !tbaa !9
  call void @llvm.lifetime.start.p0(i64 4, ptr %10) #10
  %12 = load i32, ptr %8, align 4, !tbaa !9
  %13 = mul i32 %12, 10
  store i32 %13, ptr %10, align 4, !tbaa !9
  %14 = load i32, ptr %6, align 4, !tbaa !9
  %15 = load i32, ptr %8, align 4, !tbaa !9
  %16 = udiv i32 %14, %15
  %17 = load i32, ptr %9, align 4, !tbaa !9
  %18 = udiv i32 %16, %17
  %19 = icmp ugt i32 1, %18
  br i1 %19, label %20, label %21

20:                                               ; preds = %4
  br label %27

21:                                               ; preds = %4
  %22 = load i32, ptr %6, align 4, !tbaa !9
  %23 = load i32, ptr %8, align 4, !tbaa !9
  %24 = udiv i32 %22, %23
  %25 = load i32, ptr %9, align 4, !tbaa !9
  %26 = udiv i32 %24, %25
  br label %27

27:                                               ; preds = %21, %20
  %28 = phi i32 [ 1, %20 ], [ %26, %21 ]
  %29 = getelementptr inbounds nuw %struct.COVER_epoch_info_t, ptr %5, i32 0, i32 0
  store i32 %28, ptr %29, align 4, !tbaa !19
  %30 = load i32, ptr %7, align 4, !tbaa !9
  %31 = getelementptr inbounds nuw %struct.COVER_epoch_info_t, ptr %5, i32 0, i32 0
  %32 = load i32, ptr %31, align 4, !tbaa !19
  %33 = udiv i32 %30, %32
  %34 = getelementptr inbounds nuw %struct.COVER_epoch_info_t, ptr %5, i32 0, i32 1
  store i32 %33, ptr %34, align 4, !tbaa !21
  %35 = getelementptr inbounds nuw %struct.COVER_epoch_info_t, ptr %5, i32 0, i32 1
  %36 = load i32, ptr %35, align 4, !tbaa !21
  %37 = load i32, ptr %10, align 4, !tbaa !9
  %38 = icmp uge i32 %36, %37
  br i1 %38, label %39, label %40

39:                                               ; preds = %27
  store i32 1, ptr %11, align 4
  br label %56

40:                                               ; preds = %27
  %41 = load i32, ptr %10, align 4, !tbaa !9
  %42 = load i32, ptr %7, align 4, !tbaa !9
  %43 = icmp ult i32 %41, %42
  br i1 %43, label %44, label %46

44:                                               ; preds = %40
  %45 = load i32, ptr %10, align 4, !tbaa !9
  br label %48

46:                                               ; preds = %40
  %47 = load i32, ptr %7, align 4, !tbaa !9
  br label %48

48:                                               ; preds = %46, %44
  %49 = phi i32 [ %45, %44 ], [ %47, %46 ]
  %50 = getelementptr inbounds nuw %struct.COVER_epoch_info_t, ptr %5, i32 0, i32 1
  store i32 %49, ptr %50, align 4, !tbaa !21
  %51 = load i32, ptr %7, align 4, !tbaa !9
  %52 = getelementptr inbounds nuw %struct.COVER_epoch_info_t, ptr %5, i32 0, i32 1
  %53 = load i32, ptr %52, align 4, !tbaa !21
  %54 = udiv i32 %51, %53
  %55 = getelementptr inbounds nuw %struct.COVER_epoch_info_t, ptr %5, i32 0, i32 0
  store i32 %54, ptr %55, align 4, !tbaa !19
  store i32 1, ptr %11, align 4
  br label %56

56:                                               ; preds = %48, %39
  call void @llvm.lifetime.end.p0(i64 4, ptr %10) #10
  %57 = load i64, ptr %5, align 4
  ret i64 %57
}