; Function Attrs: mustprogress nofree norecurse nosync nounwind willreturn memory(none) uwtable
define dso_local i64 @COVER_computeEpochs(i32 noundef %0, i32 noundef %1, i32 noundef %2, i32 noundef %3) local_unnamed_addr #4 {
  %5 = mul i32 %2, 10
  %6 = udiv i32 %0, %2
  %7 = icmp ugt i32 %3, %6
  br i1 %7, label %10, label %8

8:                                                ; preds = %4
  %9 = udiv i32 %6, %3
  br label %10

10:                                               ; preds = %4, %8
  %11 = phi i32 [ %9, %8 ], [ 1, %4 ]
  %12 = udiv i32 %1, %11
  %.not = icmp ult i32 %12, %5
  br i1 %.not, label %13, label %16

13:                                               ; preds = %10
  %14 = tail call i32 @llvm.umin.i32(i32 %5, i32 %1)
  %15 = udiv i32 %1, %14
  br label %16

16:                                               ; preds = %10, %13
  %.sroa.0.0 = phi i32 [ %15, %13 ], [ %11, %10 ]
  %.sroa.4.0 = phi i32 [ %14, %13 ], [ %12, %10 ]
  %.sroa.4.0.insert.ext = zext i32 %.sroa.4.0 to i64
  %.sroa.4.0.insert.shift = shl nuw i64 %.sroa.4.0.insert.ext, 32
  %.sroa.0.0.insert.ext = zext i32 %.sroa.0.0 to i64
  %.sroa.0.0.insert.insert = or disjoint i64 %.sroa.4.0.insert.shift, %.sroa.0.0.insert.ext
  ret i64 %.sroa.0.0.insert.insert
}